; Function Attrs: mustprogress nofree norecurse nosync nounwind willreturn memory(none) uwtable
define dso_local noundef zeroext i1 @_ZN4llvm3X869isPMULUDQEj(i32 noundef %0) local_unnamed_addr #0 {
  switch i32 %0, label %2 [
    i32 2422, label %3
    i32 2423, label %3
    i32 3253, label %3
    i32 3254, label %3
  ]

2:                                                ; preds = %1
  br label %3

3:                                                ; preds = %1, %1, %1, %1, %2
  %.0 = phi i1 [ false, %2 ], [ true, %1 ], [ true, %1 ], [ true, %1 ], [ true, %1 ]
  ret i1 %.0
}